target datalayout = "e-m:e-p270:32:32-p271:32:32-p272:64:64-i64:64-i128:128-f80:128-n8:16:32:64-S128"
target triple = "x86_64-pc-linux-gnu"

%struct.Camera = type { %struct.b2Vec2, float, i32, i32 }
%struct.b2Vec2 = type { float, float }
%struct.ImVec2 = type { float, float }
%struct.ImGuiIO = type { i32, i32, %struct.ImVec2, float, float, ptr, ptr, ptr, ptr, float, i8, ptr, %struct.ImVec2, i8, i8, i8, i8, i8, i8, i8, i8, i8, i8, float, float, float, float, float, float, i8, i8, i8, i8, i8, i8, i8, i8, i8, i8, ptr, ptr, ptr, ptr, ptr, i8, i8, i8, i8, i8, i8, i8, float, i32, i32, i32, i32, %struct.ImVec2, ptr, %struct.ImVec2, [5 x i8], float, float, i32, i8, i8, i8, i8, i32, [154 x %struct.ImGuiKeyData], i8, %struct.ImVec2, [5 x %struct.ImVec2], [5 x double], [5 x i8], [5 x i8], [5 x i16], [5 x i16], [5 x i8], [5 x i8], [5 x i8], i8, i8, [5 x float], [5 x float], [5 x float], float, i8, i8, i8, i8, i16, %struct.ImVector }
%struct.ImGuiKeyData = type { i8, float, float, float }
%struct.ImVector = type { i32, i32, ptr }

@g_camera = external global %struct.Camera, align 4

; Function Attrs: mustprogress uwtable
define internal void @_ZL14ScrollCallbackP10GLFWwindowdd(ptr noundef %0, double noundef %1, double noundef %2) #5 {
  %4 = alloca ptr, align 8
  %5 = alloca double, align 8
  %6 = alloca double, align 8
  store ptr %0, ptr %4, align 8, !tbaa !38
  store double %1, ptr %5, align 8, !tbaa !44
  store double %2, ptr %6, align 8, !tbaa !44
  %7 = load ptr, ptr %4, align 8, !tbaa !38
  %8 = load double, ptr %5, align 8, !tbaa !44
  %9 = load double, ptr %6, align 8, !tbaa !44
  call void @_Z29ImGui_ImplGlfw_ScrollCallbackP10GLFWwindowdd(ptr noundef %7, double noundef %8, double noundef %9)
  %10 = call noundef nonnull align 8 dereferenceable(2944) ptr @_ZN5ImGui5GetIOEv()
  %11 = getelementptr inbounds nuw %struct.ImGuiIO, ptr %10, i32 0, i32 44
  %12 = load i8, ptr %11, align 8, !tbaa !105, !range !35, !noundef !36
  %13 = trunc i8 %12 to i1
  br i1 %13, label %14, label %15

14:                                               ; preds = %3
  br label %24

15:                                               ; preds = %3
  %16 = load double, ptr %6, align 8, !tbaa !44
  %17 = fcmp ogt double %16, 0.000000e+00
  br i1 %17, label %18, label %21

18:                                               ; preds = %15
  %19 = load float, ptr getelementptr inbounds nuw (%struct.Camera, ptr @g_camera, i32 0, i32 1), align 4, !tbaa !46
  %20 = fdiv float %19, 0x3FF19999A0000000
  store float %20, ptr getelementptr inbounds nuw (%struct.Camera, ptr @g_camera, i32 0, i32 1), align 4, !tbaa !46
  br label %24

21:                                               ; preds = %15
  %22 = load float, ptr getelementptr inbounds nuw (%struct.Camera, ptr @g_camera, i32 0, i32 1), align 4, !tbaa !46
  %23 = fmul float %22, 0x3FF19999A0000000
  store float %23, ptr getelementptr inbounds nuw (%struct.Camera, ptr @g_camera, i32 0, i32 1), align 4, !tbaa !46
  br label %24

24:                                               ; preds = %14, %21, %18
  ret void
}