; Function Attrs: mustprogress uwtable
define internal void @_ZL14ScrollCallbackP10GLFWwindowdd(ptr noundef %0, double noundef %1, double noundef %2) #13 {
  tail call void @_Z29ImGui_ImplGlfw_ScrollCallbackP10GLFWwindowdd(ptr noundef %0, double noundef %1, double noundef %2)
  %4 = tail call noundef nonnull align 8 dereferenceable(2944) ptr @_ZN5ImGui5GetIOEv()
  %5 = getelementptr inbounds nuw i8, ptr %4, i64 168
  %6 = load i8, ptr %5, align 8, !tbaa !100, !range !71, !noundef !72
  %7 = trunc nuw i8 %6 to i1
  br i1 %7, label %12, label %.sink.split

.sink.split:                                      ; preds = %3
  %8 = fcmp ogt double %2, 0.000000e+00
  %9 = load float, ptr getelementptr inbounds nuw (i8, ptr @g_camera, i64 8), align 4, !tbaa !57
  %10 = fmul float %9, 0x3FF19999A0000000
  %11 = fdiv float %9, 0x3FF19999A0000000
  %.sink = select i1 %8, float %11, float %10
  store float %.sink, ptr getelementptr inbounds nuw (i8, ptr @g_camera, i64 8), align 4, !tbaa !57
  br label %12

12:                                               ; preds = %.sink.split, %3
  ret void
}